; Function Attrs: mustprogress nounwind uwtable
define noundef i32 @jio_fprintf(ptr noundef %0, ptr noundef %1, ...) local_unnamed_addr #0 {
  %3 = alloca [1 x %struct.__va_list_tag], align 16
  call void @llvm.va_start.p0(ptr nonnull %3)
  %4 = load ptr, ptr @_ZN9Arguments14_vfprintf_hookE, align 8
  %.not.i = icmp eq ptr %4, null
  br i1 %.not.i, label %7, label %5

5:                                                ; preds = %2
  %6 = call noundef i32 %4(ptr noundef %0, ptr noundef %1, ptr noundef nonnull %3) #16
  br label %jio_vfprintf.exit

7:                                                ; preds = %2
  %8 = call i32 @vfprintf(ptr noundef %0, ptr noundef %1, ptr noundef nonnull %3) #16
  br label %jio_vfprintf.exit

jio_vfprintf.exit:                                ; preds = %5, %7
  %.0.i = phi i32 [ %6, %5 ], [ %8, %7 ]
  call void @llvm.va_end.p0(ptr nonnull %3)
  ret i32 %.0.i
}